target datalayout = "e-m:e-p270:32:32-p271:32:32-p272:64:64-i64:64-i128:128-f80:128-n8:16:32:64-S128"
target triple = "x86_64-pc-linux-gnu"

%struct.Py_buffer = type { ptr, ptr, i64, i64, i32, i32, ptr, ptr, ptr, ptr, ptr }
%struct.Py_buffer_full = type { %struct.Py_buffer, [1 x i64] }

@PyExc_ValueError = external global ptr, align 8
@.str.4 = private unnamed_addr constant [40 x i8] c"PyBuffer_ToContiguous: len != view->len\00", align 1
@.str.12 = private unnamed_addr constant [2 x i8] c"B\00", align 1

; Function Attrs: inlinehint nounwind uwtable
define internal void @init_suboffsets(ptr noundef %0, ptr noundef %1) #3 {
  %3 = alloca ptr, align 8
  %4 = alloca ptr, align 8
  %5 = alloca i64, align 8
  %6 = alloca i32, align 4
  store ptr %0, ptr %3, align 8, !tbaa !9
  store ptr %1, ptr %4, align 8, !tbaa !9
  call void @llvm.lifetime.start.p0(i64 8, ptr %5) #9
  %7 = load ptr, ptr %4, align 8, !tbaa !9
  %8 = getelementptr inbounds nuw %struct.Py_buffer, ptr %7, i32 0, i32 9
  %9 = load ptr, ptr %8, align 8, !tbaa !47
  %10 = icmp eq ptr %9, null
  br i1 %10, label %11, label %14

11:                                               ; preds = %2
  %12 = load ptr, ptr %3, align 8, !tbaa !9
  %13 = getelementptr inbounds nuw %struct.Py_buffer, ptr %12, i32 0, i32 9
  store ptr null, ptr %13, align 8, !tbaa !47
  store i32 1, ptr %6, align 4
  br label %38

14:                                               ; preds = %2
  store i64 0, ptr %5, align 8, !tbaa !23
  br label %15

15:                                               ; preds = %34, %14
  %16 = load i64, ptr %5, align 8, !tbaa !23
  %17 = load ptr, ptr %4, align 8, !tbaa !9
  %18 = getelementptr inbounds nuw %struct.Py_buffer, ptr %17, i32 0, i32 5
  %19 = load i32, ptr %18, align 4, !tbaa !25
  %20 = sext i32 %19 to i64
  %21 = icmp slt i64 %16, %20
  br i1 %21, label %22, label %37

22:                                               ; preds = %15
  %23 = load ptr, ptr %4, align 8, !tbaa !9
  %24 = getelementptr inbounds nuw %struct.Py_buffer, ptr %23, i32 0, i32 9
  %25 = load ptr, ptr %24, align 8, !tbaa !47
  %26 = load i64, ptr %5, align 8, !tbaa !23
  %27 = getelementptr i64, ptr %25, i64 %26
  %28 = load i64, ptr %27, align 8, !tbaa !23
  %29 = load ptr, ptr %3, align 8, !tbaa !9
  %30 = getelementptr inbounds nuw %struct.Py_buffer, ptr %29, i32 0, i32 9
  %31 = load ptr, ptr %30, align 8, !tbaa !47
  %32 = load i64, ptr %5, align 8, !tbaa !23
  %33 = getelementptr i64, ptr %31, i64 %32
  store i64 %28, ptr %33, align 8, !tbaa !23
  br label %34

34:                                               ; preds = %22
  %35 = load i64, ptr %5, align 8, !tbaa !23
  %36 = add i64 %35, 1
  store i64 %36, ptr %5, align 8, !tbaa !23
  br label %15, !llvm.loop !58

37:                                               ; preds = %15
  store i32 0, ptr %6, align 4
  br label %38

38:                                               ; preds = %37, %11
  call void @llvm.lifetime.end.p0(i64 8, ptr %5) #9
  %39 = load i32, ptr %6, align 4
  switch i32 %39, label %41 [
    i32 0, label %40
    i32 1, label %40
  ]

40:                                               ; preds = %38, %38
  ret void

41:                                               ; preds = %38
  unreachable
}

; Function Attrs: inlinehint nounwind uwtable
define internal void @init_shared_values(ptr noundef %0, ptr noundef %1) #3 {
  %3 = alloca ptr, align 8
  %4 = alloca ptr, align 8
  store ptr %0, ptr %3, align 8, !tbaa !9
  store ptr %1, ptr %4, align 8, !tbaa !9
  %5 = load ptr, ptr %4, align 8, !tbaa !9
  %6 = getelementptr inbounds nuw %struct.Py_buffer, ptr %5, i32 0, i32 1
  %7 = load ptr, ptr %6, align 8, !tbaa !53
  %8 = load ptr, ptr %3, align 8, !tbaa !9
  %9 = getelementptr inbounds nuw %struct.Py_buffer, ptr %8, i32 0, i32 1
  store ptr %7, ptr %9, align 8, !tbaa !53
  %10 = load ptr, ptr %4, align 8, !tbaa !9
  %11 = getelementptr inbounds nuw %struct.Py_buffer, ptr %10, i32 0, i32 0
  %12 = load ptr, ptr %11, align 8, !tbaa !30
  %13 = load ptr, ptr %3, align 8, !tbaa !9
  %14 = getelementptr inbounds nuw %struct.Py_buffer, ptr %13, i32 0, i32 0
  store ptr %12, ptr %14, align 8, !tbaa !30
  %15 = load ptr, ptr %4, align 8, !tbaa !9
  %16 = getelementptr inbounds nuw %struct.Py_buffer, ptr %15, i32 0, i32 2
  %17 = load i64, ptr %16, align 8, !tbaa !41
  %18 = load ptr, ptr %3, align 8, !tbaa !9
  %19 = getelementptr inbounds nuw %struct.Py_buffer, ptr %18, i32 0, i32 2
  store i64 %17, ptr %19, align 8, !tbaa !41
  %20 = load ptr, ptr %4, align 8, !tbaa !9
  %21 = getelementptr inbounds nuw %struct.Py_buffer, ptr %20, i32 0, i32 3
  %22 = load i64, ptr %21, align 8, !tbaa !43
  %23 = load ptr, ptr %3, align 8, !tbaa !9
  %24 = getelementptr inbounds nuw %struct.Py_buffer, ptr %23, i32 0, i32 3
  store i64 %22, ptr %24, align 8, !tbaa !43
  %25 = load ptr, ptr %4, align 8, !tbaa !9
  %26 = getelementptr inbounds nuw %struct.Py_buffer, ptr %25, i32 0, i32 4
  %27 = load i32, ptr %26, align 8, !tbaa !40
  %28 = load ptr, ptr %3, align 8, !tbaa !9
  %29 = getelementptr inbounds nuw %struct.Py_buffer, ptr %28, i32 0, i32 4
  store i32 %27, ptr %29, align 8, !tbaa !40
  %30 = load ptr, ptr %4, align 8, !tbaa !9
  %31 = getelementptr inbounds nuw %struct.Py_buffer, ptr %30, i32 0, i32 6
  %32 = load ptr, ptr %31, align 8, !tbaa !42
  %33 = icmp ne ptr %32, null
  br i1 %33, label %34, label %38

34:                                               ; preds = %2
  %35 = load ptr, ptr %4, align 8, !tbaa !9
  %36 = getelementptr inbounds nuw %struct.Py_buffer, ptr %35, i32 0, i32 6
  %37 = load ptr, ptr %36, align 8, !tbaa !42
  br label %39

38:                                               ; preds = %2
  br label %39

39:                                               ; preds = %38, %34
  %40 = phi ptr [ %37, %34 ], [ @.str.12, %38 ]
  %41 = load ptr, ptr %3, align 8, !tbaa !9
  %42 = getelementptr inbounds nuw %struct.Py_buffer, ptr %41, i32 0, i32 6
  store ptr %40, ptr %42, align 8, !tbaa !42
  %43 = load ptr, ptr %4, align 8, !tbaa !9
  %44 = getelementptr inbounds nuw %struct.Py_buffer, ptr %43, i32 0, i32 10
  %45 = load ptr, ptr %44, align 8, !tbaa !54
  %46 = load ptr, ptr %3, align 8, !tbaa !9
  %47 = getelementptr inbounds nuw %struct.Py_buffer, ptr %46, i32 0, i32 10
  store ptr %45, ptr %47, align 8, !tbaa !54
  ret void
}

; Function Attrs: nounwind uwtable
define dso_local i32 @PyBuffer_ToContiguous(ptr noundef %0, ptr noundef %1, i64 noundef %2, i8 noundef signext %3) #0 {
  %5 = alloca i32, align 4
  %6 = alloca ptr, align 8
  %7 = alloca ptr, align 8
  %8 = alloca i64, align 8
  %9 = alloca i8, align 1
  %10 = alloca ptr, align 8
  %11 = alloca i32, align 4
  %12 = alloca i32, align 4
  store ptr %0, ptr %6, align 8, !tbaa !9
  store ptr %1, ptr %7, align 8, !tbaa !9
  store i64 %2, ptr %8, align 8, !tbaa !23
  store i8 %3, ptr %9, align 1, !tbaa !29
  call void @llvm.lifetime.start.p0(i64 8, ptr %10) #9
  store ptr null, ptr %10, align 8, !tbaa !9
  call void @llvm.lifetime.start.p0(i64 4, ptr %11) #9
  %13 = load i64, ptr %8, align 8, !tbaa !23
  %14 = load ptr, ptr %7, align 8, !tbaa !9
  %15 = getelementptr inbounds nuw %struct.Py_buffer, ptr %14, i32 0, i32 2
  %16 = load i64, ptr %15, align 8, !tbaa !41
  %17 = icmp ne i64 %13, %16
  br i1 %17, label %18, label %20

18:                                               ; preds = %4
  %19 = load ptr, ptr @PyExc_ValueError, align 8, !tbaa !4
  call void @PyErr_SetString(ptr noundef %19, ptr noundef @.str.4)
  store i32 -1, ptr %5, align 4
  store i32 1, ptr %12, align 4
  br label %97

20:                                               ; preds = %4
  %21 = load ptr, ptr %7, align 8, !tbaa !9
  %22 = load i8, ptr %9, align 1, !tbaa !29
  %23 = call i32 @PyBuffer_IsContiguous(ptr noundef %21, i8 noundef signext %22)
  %24 = icmp ne i32 %23, 0
  br i1 %24, label %25, label %31

25:                                               ; preds = %20
  %26 = load ptr, ptr %6, align 8, !tbaa !9
  %27 = load ptr, ptr %7, align 8, !tbaa !9
  %28 = getelementptr inbounds nuw %struct.Py_buffer, ptr %27, i32 0, i32 0
  %29 = load ptr, ptr %28, align 8, !tbaa !30
  %30 = load i64, ptr %8, align 8, !tbaa !23
  call void @llvm.memcpy.p0.p0.i64(ptr align 1 %26, ptr align 1 %29, i64 %30, i1 false)
  store i32 0, ptr %5, align 4
  store i32 1, ptr %12, align 4
  br label %97

31:                                               ; preds = %20
  %32 = load ptr, ptr %7, align 8, !tbaa !9
  %33 = getelementptr inbounds nuw %struct.Py_buffer, ptr %32, i32 0, i32 5
  %34 = load i32, ptr %33, align 4, !tbaa !25
  %35 = mul i32 3, %34
  %36 = sext i32 %35 to i64
  %37 = mul i64 %36, 8
  %38 = add i64 88, %37
  %39 = call ptr @PyMem_Malloc(i64 noundef %38)
  store ptr %39, ptr %10, align 8, !tbaa !9
  %40 = load ptr, ptr %10, align 8, !tbaa !9
  %41 = icmp eq ptr %40, null
  br i1 %41, label %42, label %44

42:                                               ; preds = %31
  %43 = call ptr @PyErr_NoMemory()
  store i32 -1, ptr %5, align 4
  store i32 1, ptr %12, align 4
  br label %97

44:                                               ; preds = %31
  %45 = load ptr, ptr %7, align 8, !tbaa !9
  %46 = getelementptr inbounds nuw %struct.Py_buffer, ptr %45, i32 0, i32 5
  %47 = load i32, ptr %46, align 4, !tbaa !25
  %48 = load ptr, ptr %10, align 8, !tbaa !9
  %49 = getelementptr inbounds nuw %struct.Py_buffer_full, ptr %48, i32 0, i32 0
  %50 = getelementptr inbounds nuw %struct.Py_buffer, ptr %49, i32 0, i32 5
  store i32 %47, ptr %50, align 4, !tbaa !48
  %51 = load ptr, ptr %10, align 8, !tbaa !9
  %52 = getelementptr inbounds nuw %struct.Py_buffer_full, ptr %51, i32 0, i32 1
  %53 = getelementptr inbounds [1 x i64], ptr %52, i64 0, i64 0
  %54 = load ptr, ptr %10, align 8, !tbaa !9
  %55 = getelementptr inbounds nuw %struct.Py_buffer_full, ptr %54, i32 0, i32 0
  %56 = getelementptr inbounds nuw %struct.Py_buffer, ptr %55, i32 0, i32 7
  store ptr %53, ptr %56, align 8, !tbaa !50
  %57 = load ptr, ptr %10, align 8, !tbaa !9
  %58 = getelementptr inbounds nuw %struct.Py_buffer_full, ptr %57, i32 0, i32 1
  %59 = getelementptr inbounds [1 x i64], ptr %58, i64 0, i64 0
  %60 = load ptr, ptr %7, align 8, !tbaa !9
  %61 = getelementptr inbounds nuw %struct.Py_buffer, ptr %60, i32 0, i32 5
  %62 = load i32, ptr %61, align 4, !tbaa !25
  %63 = sext i32 %62 to i64
  %64 = getelementptr i64, ptr %59, i64 %63
  %65 = load ptr, ptr %10, align 8, !tbaa !9
  %66 = getelementptr inbounds nuw %struct.Py_buffer_full, ptr %65, i32 0, i32 0
  %67 = getelementptr inbounds nuw %struct.Py_buffer, ptr %66, i32 0, i32 8
  store ptr %64, ptr %67, align 8, !tbaa !51
  %68 = load ptr, ptr %10, align 8, !tbaa !9
  %69 = getelementptr inbounds nuw %struct.Py_buffer_full, ptr %68, i32 0, i32 1
  %70 = getelementptr inbounds [1 x i64], ptr %69, i64 0, i64 0
  %71 = load ptr, ptr %7, align 8, !tbaa !9
  %72 = getelementptr inbounds nuw %struct.Py_buffer, ptr %71, i32 0, i32 5
  %73 = load i32, ptr %72, align 4, !tbaa !25
  %74 = mul i32 2, %73
  %75 = sext i32 %74 to i64
  %76 = getelementptr i64, ptr %70, i64 %75
  %77 = load ptr, ptr %10, align 8, !tbaa !9
  %78 = getelementptr inbounds nuw %struct.Py_buffer_full, ptr %77, i32 0, i32 0
  %79 = getelementptr inbounds nuw %struct.Py_buffer, ptr %78, i32 0, i32 9
  store ptr %76, ptr %79, align 8, !tbaa !52
  %80 = load ptr, ptr %10, align 8, !tbaa !9
  %81 = getelementptr inbounds nuw %struct.Py_buffer_full, ptr %80, i32 0, i32 0
  %82 = load ptr, ptr %7, align 8, !tbaa !9
  call void @init_shared_values(ptr noundef %81, ptr noundef %82)
  %83 = load ptr, ptr %10, align 8, !tbaa !9
  %84 = getelementptr inbounds nuw %struct.Py_buffer_full, ptr %83, i32 0, i32 0
  %85 = load ptr, ptr %7, align 8, !tbaa !9
  call void @init_shape_strides(ptr noundef %84, ptr noundef %85)
  %86 = load ptr, ptr %10, align 8, !tbaa !9
  %87 = getelementptr inbounds nuw %struct.Py_buffer_full, ptr %86, i32 0, i32 0
  %88 = load ptr, ptr %7, align 8, !tbaa !9
  call void @init_suboffsets(ptr noundef %87, ptr noundef %88)
  %89 = load ptr, ptr %10, align 8, !tbaa !9
  %90 = getelementptr inbounds nuw %struct.Py_buffer_full, ptr %89, i32 0, i32 0
  store ptr %90, ptr %7, align 8, !tbaa !9
  %91 = load ptr, ptr %6, align 8, !tbaa !9
  %92 = load ptr, ptr %7, align 8, !tbaa !9
  %93 = load i8, ptr %9, align 1, !tbaa !29
  %94 = call i32 @buffer_to_contiguous(ptr noundef %91, ptr noundef %92, i8 noundef signext %93)
  store i32 %94, ptr %11, align 4, !tbaa !21
  %95 = load ptr, ptr %10, align 8, !tbaa !9
  call void @PyMem_Free(ptr noundef %95)
  %96 = load i32, ptr %11, align 4, !tbaa !21
  store i32 %96, ptr %5, align 4
  store i32 1, ptr %12, align 4
  br label %97

97:                                               ; preds = %44, %42, %25, %18
  call void @llvm.lifetime.end.p0(i64 4, ptr %11) #9
  call void @llvm.lifetime.end.p0(i64 8, ptr %10) #9
  %98 = load i32, ptr %5, align 4
  ret i32 %98
}