; Function Attrs: nounwind uwtable
define dso_local range(i32 -1, 1) i32 @PyBuffer_ToContiguous(ptr noundef %0, ptr noundef %1, i64 noundef %2, i8 noundef signext %3) local_unnamed_addr #0 {
  %5 = getelementptr inbounds nuw i8, ptr %1, i64 16
  %6 = load i64, ptr %5, align 8, !tbaa !118
  %.not = icmp eq i64 %2, %6
  br i1 %.not, label %9, label %7

7:                                                ; preds = %4
  %8 = load ptr, ptr @PyExc_ValueError, align 8, !tbaa !104
  tail call void @PyErr_SetString(ptr noundef %8, ptr noundef nonnull @.str.4) #14
  br label %68

9:                                                ; preds = %4
  %10 = tail call i32 @PyBuffer_IsContiguous(ptr noundef nonnull %1, i8 noundef signext %3) #14
  %.not33 = icmp eq i32 %10, 0
  br i1 %.not33, label %13, label %11

11:                                               ; preds = %9
  %12 = load ptr, ptr %1, align 8, !tbaa !117
  tail call void @llvm.memcpy.p0.p0.i64(ptr align 1 %0, ptr align 1 %12, i64 %2, i1 false)
  br label %68

13:                                               ; preds = %9
  %14 = getelementptr inbounds nuw i8, ptr %1, i64 36
  %15 = load i32, ptr %14, align 4, !tbaa !103
  %16 = mul i32 %15, 3
  %17 = sext i32 %16 to i64
  %18 = shl nsw i64 %17, 3
  %19 = add nsw i64 %18, 88
  %20 = tail call ptr @PyMem_Malloc(i64 noundef %19) #14
  %21 = icmp eq ptr %20, null
  br i1 %21, label %22, label %24

22:                                               ; preds = %13
  %23 = tail call ptr @PyErr_NoMemory() #14
  br label %68

24:                                               ; preds = %13
  %25 = load i32, ptr %14, align 4, !tbaa !103
  %26 = getelementptr inbounds nuw i8, ptr %20, i64 36
  store i32 %25, ptr %26, align 4, !tbaa !144
  %27 = getelementptr inbounds nuw i8, ptr %20, i64 80
  %28 = getelementptr inbounds nuw i8, ptr %20, i64 48
  store ptr %27, ptr %28, align 8, !tbaa !146
  %29 = sext i32 %25 to i64
  %30 = getelementptr i64, ptr %27, i64 %29
  %31 = getelementptr inbounds nuw i8, ptr %20, i64 56
  store ptr %30, ptr %31, align 8, !tbaa !147
  %32 = shl i32 %25, 1
  %33 = sext i32 %32 to i64
  %34 = getelementptr i64, ptr %27, i64 %33
  %35 = getelementptr inbounds nuw i8, ptr %20, i64 64
  store ptr %34, ptr %35, align 8, !tbaa !148
  %36 = getelementptr inbounds nuw i8, ptr %1, i64 8
  %37 = load ptr, ptr %36, align 8, !tbaa !116
  %38 = getelementptr inbounds nuw i8, ptr %20, i64 8
  store ptr %37, ptr %38, align 8, !tbaa !116
  %39 = load ptr, ptr %1, align 8, !tbaa !117
  store ptr %39, ptr %20, align 8, !tbaa !117
  %40 = load i64, ptr %5, align 8, !tbaa !118
  %41 = getelementptr inbounds nuw i8, ptr %20, i64 16
  store i64 %40, ptr %41, align 8, !tbaa !118
  %42 = getelementptr inbounds nuw i8, ptr %1, i64 24
  %43 = load i64, ptr %42, align 8, !tbaa !119
  %44 = getelementptr inbounds nuw i8, ptr %20, i64 24
  store i64 %43, ptr %44, align 8, !tbaa !119
  %45 = getelementptr inbounds nuw i8, ptr %1, i64 32
  %46 = load i32, ptr %45, align 8, !tbaa !120
  %47 = getelementptr inbounds nuw i8, ptr %20, i64 32
  store i32 %46, ptr %47, align 8, !tbaa !120
  %48 = getelementptr inbounds nuw i8, ptr %1, i64 40
  %49 = load ptr, ptr %48, align 8, !tbaa !121
  %.not.i = icmp eq ptr %49, null
  %spec.select.i = select i1 %.not.i, ptr @.str.12, ptr %49
  %50 = getelementptr inbounds nuw i8, ptr %20, i64 40
  store ptr %spec.select.i, ptr %50, align 8, !tbaa !121
  %51 = getelementptr inbounds nuw i8, ptr %1, i64 72
  %52 = load ptr, ptr %51, align 8, !tbaa !122
  %53 = getelementptr inbounds nuw i8, ptr %20, i64 72
  store ptr %52, ptr %53, align 8, !tbaa !122
  tail call fastcc void @init_shape_strides(ptr noundef %20, ptr noundef nonnull %1)
  %54 = getelementptr inbounds nuw i8, ptr %1, i64 64
  %55 = load ptr, ptr %54, align 8, !tbaa !123
  %56 = icmp eq ptr %55, null
  br i1 %56, label %61, label %.preheader.i

.preheader.i:                                     ; preds = %24
  %57 = load i32, ptr %14, align 4, !tbaa !103
  %58 = sext i32 %57 to i64
  %59 = icmp sgt i32 %57, 0
  br i1 %59, label %.lr.ph.i, label %init_suboffsets.exit

.lr.ph.i:                                         ; preds = %.preheader.i
  %60 = load ptr, ptr %35, align 8, !tbaa !123
  br label %62

61:                                               ; preds = %24
  store ptr null, ptr %35, align 8, !tbaa !123
  br label %init_suboffsets.exit

62:                                               ; preds = %62, %.lr.ph.i
  %.08.i = phi i64 [ 0, %.lr.ph.i ], [ %66, %62 ]
  %63 = getelementptr i64, ptr %55, i64 %.08.i
  %64 = load i64, ptr %63, align 8, !tbaa !124
  %65 = getelementptr i64, ptr %60, i64 %.08.i
  store i64 %64, ptr %65, align 8, !tbaa !124
  %66 = add nuw nsw i64 %.08.i, 1
  %exitcond.not.i = icmp eq i64 %66, %58
  br i1 %exitcond.not.i, label %init_suboffsets.exit, label %62, !llvm.loop !125

init_suboffsets.exit:                             ; preds = %62, %.preheader.i, %61
  %67 = tail call fastcc i32 @buffer_to_contiguous(ptr noundef %0, ptr noundef nonnull %20, i8 noundef signext %3)
  tail call void @PyMem_Free(ptr noundef nonnull %20) #14
  br label %68

68:                                               ; preds = %init_suboffsets.exit, %22, %11, %7
  %.0 = phi i32 [ -1, %7 ], [ 0, %11 ], [ -1, %22 ], [ %67, %init_suboffsets.exit ]
  ret i32 %.0
}